target datalayout = "e-m:e-p270:32:32-p271:32:32-p272:64:64-i64:64-i128:128-f80:128-n8:16:32:64-S128"
target triple = "x86_64-pc-linux-gnu"

%class.DissectorTablesModel = type { %class.QAbstractItemModel, ptr }
%class.QAbstractItemModel = type { %class.QObject }
%class.QObject = type { ptr, %class.QScopedPointer }
%class.QScopedPointer = type { ptr }

; Function Attrs: mustprogress nounwind null_pointer_is_valid sspstrong uwtable
define void @_ZN20DissectorTablesModelD2Ev(ptr noundef align 8 dereferenceable_or_null(24) %0) unnamed_addr #1 align 2 {
  %2 = alloca ptr, align 8
  store ptr %0, ptr %2, align 8
  %3 = load ptr, ptr %2, align 8
  store ptr getelementptr inbounds inrange(-16, 392) ({ [51 x ptr] }, ptr @_ZTV20DissectorTablesModel, i32 0, i32 0, i32 2), ptr %3, align 8
  %4 = getelementptr inbounds nuw %class.DissectorTablesModel, ptr %3, i32 0, i32 1
  %5 = load ptr, ptr %4, align 8
  %6 = icmp eq ptr %5, null
  br i1 %6, label %11, label %7

7:                                                ; preds = %1
  %8 = load ptr, ptr %5, align 8
  %9 = getelementptr inbounds ptr, ptr %8, i64 1
  %10 = load ptr, ptr %9, align 8
  call void %10(ptr noundef align 8 dereferenceable_or_null(88) %5) #19
  br label %11

11:                                               ; preds = %7, %1
  call void @_ZN18QAbstractItemModelD2Ev(ptr noundef align 8 dereferenceable_or_null(16) %3) #19
  ret void
}