; Function Attrs: mustprogress nounwind null_pointer_is_valid sspstrong uwtable
define void @_ZN20DissectorTablesModelD2Ev(ptr noundef align 8 dereferenceable_or_null(24) initializes((0, 8)) %0) unnamed_addr #1 align 2 {
  store ptr getelementptr inbounds nuw inrange(-16, 392) (i8, ptr @_ZTV20DissectorTablesModel, i64 16), ptr %0, align 8
  %2 = getelementptr inbounds nuw i8, ptr %0, i64 16
  %3 = load ptr, ptr %2, align 8
  %4 = icmp eq ptr %3, null
  br i1 %4, label %9, label %5

5:                                                ; preds = %1
  %6 = load ptr, ptr %3, align 8
  %7 = getelementptr inbounds nuw i8, ptr %6, i64 8
  %8 = load ptr, ptr %7, align 8
  tail call void %8(ptr noundef nonnull align 8 dereferenceable_or_null(88) %3) #22
  br label %9

9:                                                ; preds = %5, %1
  tail call void @_ZN18QAbstractItemModelD2Ev(ptr noundef align 8 dereferenceable_or_null(16) %0) #22
  ret void
}